target datalayout = "e-m:e-p270:32:32-p271:32:32-p272:64:64-i64:64-i128:128-f80:128-n8:16:32:64-S128"
target triple = "x86_64-pc-linux-gnu"

@sane_ctype = external constant [256 x i8], align 16

; Function Attrs: inlinehint nounwind uwtable
define internal i32 @sane_case(i32 noundef %0, i32 noundef %1) #1 {
  %3 = alloca i32, align 4
  %4 = alloca i32, align 4
  store i32 %0, ptr %3, align 4, !tbaa !10
  store i32 %1, ptr %4, align 4, !tbaa !10
  %5 = load i32, ptr %3, align 4, !tbaa !10
  %6 = trunc i32 %5 to i8
  %7 = zext i8 %6 to i64
  %8 = getelementptr inbounds nuw [256 x i8], ptr @sane_ctype, i64 0, i64 %7
  %9 = load i8, ptr %8, align 1, !tbaa !9
  %10 = zext i8 %9 to i32
  %11 = and i32 %10, 4
  %12 = icmp ne i32 %11, 0
  br i1 %12, label %13, label %18

13:                                               ; preds = %2
  %14 = load i32, ptr %3, align 4, !tbaa !10
  %15 = and i32 %14, -33
  %16 = load i32, ptr %4, align 4, !tbaa !10
  %17 = or i32 %15, %16
  store i32 %17, ptr %3, align 4, !tbaa !10
  br label %18

18:                                               ; preds = %13, %2
  %19 = load i32, ptr %3, align 4, !tbaa !10
  ret i32 %19
}

; Function Attrs: nounwind uwtable
define dso_local ptr @xstrdup_toupper(ptr noundef %0) #0 {
  %2 = alloca ptr, align 8
  %3 = alloca ptr, align 8
  %4 = alloca i64, align 8
  %5 = alloca i64, align 8
  store ptr %0, ptr %2, align 8, !tbaa !4
  call void @llvm.lifetime.start.p0(i64 8, ptr %3) #11
  call void @llvm.lifetime.start.p0(i64 8, ptr %4) #11
  call void @llvm.lifetime.start.p0(i64 8, ptr %5) #11
  %6 = load ptr, ptr %2, align 8, !tbaa !4
  %7 = call i64 @strlen(ptr noundef %6) #13
  store i64 %7, ptr %4, align 8, !tbaa !12
  %8 = load i64, ptr %4, align 8, !tbaa !12
  %9 = call ptr @xmallocz(i64 noundef %8)
  store ptr %9, ptr %3, align 8, !tbaa !4
  store i64 0, ptr %5, align 8, !tbaa !12
  br label %10

10:                                               ; preds = %25, %1
  %11 = load i64, ptr %5, align 8, !tbaa !12
  %12 = load i64, ptr %4, align 8, !tbaa !12
  %13 = icmp ult i64 %11, %12
  br i1 %13, label %14, label %28

14:                                               ; preds = %10
  %15 = load ptr, ptr %2, align 8, !tbaa !4
  %16 = load i64, ptr %5, align 8, !tbaa !12
  %17 = getelementptr inbounds nuw i8, ptr %15, i64 %16
  %18 = load i8, ptr %17, align 1, !tbaa !9
  %19 = zext i8 %18 to i32
  %20 = call i32 @sane_case(i32 noundef %19, i32 noundef 0)
  %21 = trunc i32 %20 to i8
  %22 = load ptr, ptr %3, align 8, !tbaa !4
  %23 = load i64, ptr %5, align 8, !tbaa !12
  %24 = getelementptr inbounds nuw i8, ptr %22, i64 %23
  store i8 %21, ptr %24, align 1, !tbaa !9
  br label %25

25:                                               ; preds = %14
  %26 = load i64, ptr %5, align 8, !tbaa !12
  %27 = add i64 %26, 1
  store i64 %27, ptr %5, align 8, !tbaa !12
  br label %10, !llvm.loop !58

28:                                               ; preds = %10
  %29 = load ptr, ptr %3, align 8, !tbaa !4
  call void @llvm.lifetime.end.p0(i64 8, ptr %5) #11
  call void @llvm.lifetime.end.p0(i64 8, ptr %4) #11
  call void @llvm.lifetime.end.p0(i64 8, ptr %3) #11
  ret ptr %29
}