; Function Attrs: nounwind uwtable
define dso_local ptr @xstrdup_toupper(ptr noundef readonly captures(none) %0) local_unnamed_addr #3 {
  %2 = tail call i64 @strlen(ptr noundef nonnull dereferenceable(1) %0) #26
  %3 = tail call ptr @xmallocz(i64 noundef %2) #25
  %.not = icmp eq i64 %2, 0
  br i1 %.not, label %._crit_edge, label %.lr.ph

.lr.ph:                                           ; preds = %1, %.lr.ph
  %.09 = phi i64 [ %13, %.lr.ph ], [ 0, %1 ]
  %4 = getelementptr inbounds nuw i8, ptr %0, i64 %.09
  %5 = load i8, ptr %4, align 1, !tbaa !4
  %6 = zext i8 %5 to i64
  %7 = getelementptr inbounds nuw [256 x i8], ptr @sane_ctype, i64 0, i64 %6
  %8 = load i8, ptr %7, align 1, !tbaa !4
  %9 = and i8 %8, 4
  %.not.i = icmp eq i8 %9, 0
  %10 = and i8 %5, -33
  %11 = select i1 %.not.i, i8 %5, i8 %10
  %12 = getelementptr inbounds nuw i8, ptr %3, i64 %.09
  store i8 %11, ptr %12, align 1, !tbaa !4
  %13 = add nuw i64 %.09, 1
  %exitcond.not = icmp eq i64 %13, %2
  br i1 %exitcond.not, label %._crit_edge, label %.lr.ph, !llvm.loop !46

._crit_edge:                                      ; preds = %.lr.ph, %1
  ret ptr %3
}